target datalayout = "e-m:e-p270:32:32-p271:32:32-p272:64:64-i64:64-i128:128-f80:128-n8:16:32:64-S128"
target triple = "x86_64-pc-linux-gnu"

%struct.ForEachState = type { ptr, i32 }
%struct.List = type { i32, i32, i32, ptr, [0 x %union.ListCell] }
%union.ListCell = type { ptr }
%struct.nameData = type { [64 x i8] }
%struct.HeapTupleData = type { i32, %struct.ItemPointerData, i32, ptr }
%struct.ItemPointerData = type { %struct.BlockIdData, i16 }
%struct.BlockIdData = type { i16, i16 }
%struct.HeapTupleHeaderData = type { %union.anon, %struct.ItemPointerData, i16, i16, i8, [0 x i8] }
%union.anon = type { %struct.HeapTupleFields }
%struct.HeapTupleFields = type { i32, i32, %union.anon.0 }
%union.anon.0 = type { i32 }
%struct.FormData_pg_collation = type { i32, %struct.nameData, i32, i32, i8, i8, i32 }

@.str.1 = private unnamed_addr constant [12 x i8] c"namespace.c\00", align 1
@myTempNamespace = internal global i32 0, align 4
@activeSearchPath = internal global ptr null, align 8
@.str.27 = private unnamed_addr constant [48 x i8] c"collation \22%s\22 for encoding \22%s\22 does not exist\00", align 1
@__func__.get_collation_oid = private unnamed_addr constant [18 x i8] c"get_collation_oid\00", align 1

; Function Attrs: inlinehint nounwind uwtable
define internal ptr @GETSTRUCT(ptr noundef %0) #7 {
  %2 = alloca ptr, align 8
  store ptr %0, ptr %2, align 8
  %3 = load ptr, ptr %2, align 8
  %4 = getelementptr inbounds nuw %struct.HeapTupleData, ptr %3, i32 0, i32 3
  %5 = load ptr, ptr %4, align 8
  %6 = load ptr, ptr %2, align 8
  %7 = getelementptr inbounds nuw %struct.HeapTupleData, ptr %6, i32 0, i32 3
  %8 = load ptr, ptr %7, align 8
  %9 = getelementptr inbounds nuw %struct.HeapTupleHeaderData, ptr %8, i32 0, i32 4
  %10 = load i8, ptr %9, align 2
  %11 = zext i8 %10 to i32
  %12 = sext i32 %11 to i64
  %13 = getelementptr inbounds i8, ptr %5, i64 %12
  ret ptr %13
}

; Function Attrs: inlinehint nounwind uwtable
define internal i64 @ObjectIdGetDatum(i32 noundef %0) #7 {
  %2 = alloca i32, align 4
  store i32 %0, ptr %2, align 4
  %3 = load i32, ptr %2, align 4
  %4 = zext i32 %3 to i64
  ret i64 %4
}

; Function Attrs: inlinehint nounwind uwtable
define internal i64 @Int32GetDatum(i32 noundef %0) #7 {
  %2 = alloca i32, align 4
  store i32 %0, ptr %2, align 4
  %3 = load i32, ptr %2, align 4
  %4 = sext i32 %3 to i64
  ret i64 %4
}

; Function Attrs: inlinehint nounwind uwtable
define internal i64 @PointerGetDatum(ptr noundef %0) #7 {
  %2 = alloca ptr, align 8
  store ptr %0, ptr %2, align 8
  %3 = load ptr, ptr %2, align 8
  %4 = ptrtoint ptr %3 to i64
  ret i64 %4
}

; Function Attrs: nounwind uwtable
define internal i32 @lookup_collation(ptr noundef %0, i32 noundef %1, i32 noundef %2) #0 {
  %4 = alloca i32, align 4
  %5 = alloca ptr, align 8
  %6 = alloca i32, align 4
  %7 = alloca i32, align 4
  %8 = alloca i32, align 4
  %9 = alloca ptr, align 8
  %10 = alloca ptr, align 8
  %11 = alloca i32, align 4
  store ptr %0, ptr %5, align 8
  store i32 %1, ptr %6, align 4
  store i32 %2, ptr %7, align 4
  call void @llvm.lifetime.start.p0(i64 4, ptr %8) #14
  call void @llvm.lifetime.start.p0(i64 8, ptr %9) #14
  call void @llvm.lifetime.start.p0(i64 8, ptr %10) #14
  %12 = load ptr, ptr %5, align 8
  %13 = call i64 @PointerGetDatum(ptr noundef %12)
  %14 = load i32, ptr %7, align 4
  %15 = call i64 @Int32GetDatum(i32 noundef %14)
  %16 = load i32, ptr %6, align 4
  %17 = call i64 @ObjectIdGetDatum(i32 noundef %16)
  %18 = call i32 @GetSysCacheOid(i32 noundef 15, i16 noundef signext 1, i64 noundef %13, i64 noundef %15, i64 noundef %17, i64 noundef 0)
  store i32 %18, ptr %8, align 4
  %19 = load i32, ptr %8, align 4
  %20 = icmp ne i32 %19, 0
  br i1 %20, label %21, label %23

21:                                               ; preds = %3
  %22 = load i32, ptr %8, align 4
  store i32 %22, ptr %4, align 4
  store i32 1, ptr %11, align 4
  br label %57

23:                                               ; preds = %3
  %24 = load ptr, ptr %5, align 8
  %25 = call i64 @PointerGetDatum(ptr noundef %24)
  %26 = call i64 @Int32GetDatum(i32 noundef -1)
  %27 = load i32, ptr %6, align 4
  %28 = call i64 @ObjectIdGetDatum(i32 noundef %27)
  %29 = call ptr @SearchSysCache3(i32 noundef 15, i64 noundef %25, i64 noundef %26, i64 noundef %28)
  store ptr %29, ptr %9, align 8
  %30 = load ptr, ptr %9, align 8
  %31 = icmp ne ptr %30, null
  br i1 %31, label %33, label %32

32:                                               ; preds = %23
  store i32 0, ptr %4, align 4
  store i32 1, ptr %11, align 4
  br label %57

33:                                               ; preds = %23
  %34 = load ptr, ptr %9, align 8
  %35 = call ptr @GETSTRUCT(ptr noundef %34)
  store ptr %35, ptr %10, align 8
  %36 = load ptr, ptr %10, align 8
  %37 = getelementptr inbounds nuw %struct.FormData_pg_collation, ptr %36, i32 0, i32 4
  %38 = load i8, ptr %37, align 4
  %39 = sext i8 %38 to i32
  %40 = icmp eq i32 %39, 105
  br i1 %40, label %41, label %50

41:                                               ; preds = %33
  %42 = load i32, ptr %7, align 4
  %43 = call zeroext i1 @is_encoding_supported_by_icu(i32 noundef %42)
  br i1 %43, label %44, label %48

44:                                               ; preds = %41
  %45 = load ptr, ptr %10, align 8
  %46 = getelementptr inbounds nuw %struct.FormData_pg_collation, ptr %45, i32 0, i32 0
  %47 = load i32, ptr %46, align 4
  store i32 %47, ptr %8, align 4
  br label %49

48:                                               ; preds = %41
  store i32 0, ptr %8, align 4
  br label %49

49:                                               ; preds = %48, %44
  br label %54

50:                                               ; preds = %33
  %51 = load ptr, ptr %10, align 8
  %52 = getelementptr inbounds nuw %struct.FormData_pg_collation, ptr %51, i32 0, i32 0
  %53 = load i32, ptr %52, align 4
  store i32 %53, ptr %8, align 4
  br label %54

54:                                               ; preds = %50, %49
  %55 = load ptr, ptr %9, align 8
  call void @ReleaseSysCache(ptr noundef %55)
  %56 = load i32, ptr %8, align 4
  store i32 %56, ptr %4, align 4
  store i32 1, ptr %11, align 4
  br label %57

57:                                               ; preds = %54, %32, %21
  call void @llvm.lifetime.end.p0(i64 8, ptr %10) #14
  call void @llvm.lifetime.end.p0(i64 8, ptr %9) #14
  call void @llvm.lifetime.end.p0(i64 4, ptr %8) #14
  %58 = load i32, ptr %4, align 4
  ret i32 %58
}

; Function Attrs: nounwind uwtable
define dso_local i32 @get_collation_oid(ptr noundef %0, i1 noundef zeroext %1) #0 {
  %3 = alloca i32, align 4
  %4 = alloca ptr, align 8
  %5 = alloca i8, align 1
  %6 = alloca ptr, align 8
  %7 = alloca ptr, align 8
  %8 = alloca i32, align 4
  %9 = alloca i32, align 4
  %10 = alloca i32, align 4
  %11 = alloca ptr, align 8
  %12 = alloca i32, align 4
  %13 = alloca %struct.ForEachState, align 8
  store ptr %0, ptr %4, align 8
  %14 = zext i1 %1 to i8
  store i8 %14, ptr %5, align 1
  call void @llvm.lifetime.start.p0(i64 8, ptr %6) #14
  call void @llvm.lifetime.start.p0(i64 8, ptr %7) #14
  call void @llvm.lifetime.start.p0(i64 4, ptr %8) #14
  %15 = call i32 @GetDatabaseEncoding()
  store i32 %15, ptr %8, align 4
  call void @llvm.lifetime.start.p0(i64 4, ptr %9) #14
  call void @llvm.lifetime.start.p0(i64 4, ptr %10) #14
  call void @llvm.lifetime.start.p0(i64 8, ptr %11) #14
  %16 = load ptr, ptr %4, align 8
  call void @DeconstructQualifiedName(ptr noundef %16, ptr noundef %6, ptr noundef %7)
  %17 = load ptr, ptr %6, align 8
  %18 = icmp ne ptr %17, null
  br i1 %18, label %19, label %40

19:                                               ; preds = %2
  %20 = load ptr, ptr %6, align 8
  %21 = load i8, ptr %5, align 1, !range !4, !noundef !5
  %22 = trunc i8 %21 to i1
  %23 = call i32 @LookupExplicitNamespace(ptr noundef %20, i1 noundef zeroext %22)
  store i32 %23, ptr %9, align 4
  %24 = load i8, ptr %5, align 1, !range !4, !noundef !5
  %25 = trunc i8 %24 to i1
  br i1 %25, label %26, label %30

26:                                               ; preds = %19
  %27 = load i32, ptr %9, align 4
  %28 = icmp ne i32 %27, 0
  br i1 %28, label %30, label %29

29:                                               ; preds = %26
  store i32 0, ptr %3, align 4
  store i32 1, ptr %12, align 4
  br label %114

30:                                               ; preds = %26, %19
  %31 = load ptr, ptr %7, align 8
  %32 = load i32, ptr %9, align 4
  %33 = load i32, ptr %8, align 4
  %34 = call i32 @lookup_collation(ptr noundef %31, i32 noundef %32, i32 noundef %33)
  store i32 %34, ptr %10, align 4
  %35 = load i32, ptr %10, align 4
  %36 = icmp ne i32 %35, 0
  br i1 %36, label %37, label %39

37:                                               ; preds = %30
  %38 = load i32, ptr %10, align 4
  store i32 %38, ptr %3, align 4
  store i32 1, ptr %12, align 4
  br label %114

39:                                               ; preds = %30
  br label %95

40:                                               ; preds = %2
  call void @recomputeNamespacePath()
  call void @llvm.lifetime.start.p0(i64 16, ptr %13) #14
  %41 = getelementptr inbounds nuw %struct.ForEachState, ptr %13, i32 0, i32 0
  %42 = load ptr, ptr @activeSearchPath, align 8
  store ptr %42, ptr %41, align 8
  %43 = getelementptr inbounds nuw %struct.ForEachState, ptr %13, i32 0, i32 1
  store i32 0, ptr %43, align 8
  %44 = getelementptr i8, ptr %13, i64 12
  call void @llvm.memset.p0.i64(ptr align 4 %44, i8 0, i64 4, i1 false)
  br label %45

45:                                               ; preds = %88, %40
  %46 = getelementptr inbounds nuw %struct.ForEachState, ptr %13, i32 0, i32 0
  %47 = load ptr, ptr %46, align 8
  %48 = icmp ne ptr %47, null
  br i1 %48, label %49, label %66

49:                                               ; preds = %45
  %50 = getelementptr inbounds nuw %struct.ForEachState, ptr %13, i32 0, i32 1
  %51 = load i32, ptr %50, align 8
  %52 = getelementptr inbounds nuw %struct.ForEachState, ptr %13, i32 0, i32 0
  %53 = load ptr, ptr %52, align 8
  %54 = getelementptr inbounds nuw %struct.List, ptr %53, i32 0, i32 1
  %55 = load i32, ptr %54, align 4
  %56 = icmp slt i32 %51, %55
  br i1 %56, label %57, label %66

57:                                               ; preds = %49
  %58 = getelementptr inbounds nuw %struct.ForEachState, ptr %13, i32 0, i32 0
  %59 = load ptr, ptr %58, align 8
  %60 = getelementptr inbounds nuw %struct.List, ptr %59, i32 0, i32 3
  %61 = load ptr, ptr %60, align 8
  %62 = getelementptr inbounds nuw %struct.ForEachState, ptr %13, i32 0, i32 1
  %63 = load i32, ptr %62, align 8
  %64 = sext i32 %63 to i64
  %65 = getelementptr inbounds %union.ListCell, ptr %61, i64 %64
  store ptr %65, ptr %11, align 8
  br label %67

66:                                               ; preds = %49, %45
  store ptr null, ptr %11, align 8
  br label %67

67:                                               ; preds = %66, %57
  %68 = phi i32 [ 1, %57 ], [ 0, %66 ]
  %69 = icmp ne i32 %68, 0
  br i1 %69, label %71, label %70

70:                                               ; preds = %67
  store i32 2, ptr %12, align 4
  br label %92

71:                                               ; preds = %67
  %72 = load ptr, ptr %11, align 8
  %73 = load i32, ptr %72, align 8
  store i32 %73, ptr %9, align 4
  %74 = load i32, ptr %9, align 4
  %75 = load i32, ptr @myTempNamespace, align 4
  %76 = icmp eq i32 %74, %75
  br i1 %76, label %77, label %78

77:                                               ; preds = %71
  br label %88

78:                                               ; preds = %71
  %79 = load ptr, ptr %7, align 8
  %80 = load i32, ptr %9, align 4
  %81 = load i32, ptr %8, align 4
  %82 = call i32 @lookup_collation(ptr noundef %79, i32 noundef %80, i32 noundef %81)
  store i32 %82, ptr %10, align 4
  %83 = load i32, ptr %10, align 4
  %84 = icmp ne i32 %83, 0
  br i1 %84, label %85, label %87

85:                                               ; preds = %78
  %86 = load i32, ptr %10, align 4
  store i32 %86, ptr %3, align 4
  store i32 1, ptr %12, align 4
  br label %92

87:                                               ; preds = %78
  br label %88

88:                                               ; preds = %87, %77
  %89 = getelementptr inbounds nuw %struct.ForEachState, ptr %13, i32 0, i32 1
  %90 = load i32, ptr %89, align 8
  %91 = add i32 %90, 1
  store i32 %91, ptr %89, align 8
  br label %45, !llvm.loop !45

92:                                               ; preds = %85, %70
  call void @llvm.lifetime.end.p0(i64 16, ptr %13) #14
  %93 = load i32, ptr %12, align 4
  switch i32 %93, label %114 [
    i32 2, label %94
  ]

94:                                               ; preds = %92
  br label %95

95:                                               ; preds = %94, %39
  %96 = load i8, ptr %5, align 1, !range !4, !noundef !5
  %97 = trunc i8 %96 to i1
  br i1 %97, label %113, label %98

98:                                               ; preds = %95
  br label %99

99:                                               ; preds = %98
  br i1 true, label %100, label %102

100:                                              ; preds = %99
  %101 = call zeroext i1 @errstart_cold(i32 noundef 21, ptr noundef null) #16
  br i1 %101, label %104, label %110

102:                                              ; preds = %99
  %103 = call zeroext i1 @errstart(i32 noundef 21, ptr noundef null)
  br i1 %103, label %104, label %110

104:                                              ; preds = %102, %100
  %105 = call i32 @errcode(i32 noundef 67137668)
  %106 = load ptr, ptr %4, align 8
  %107 = call ptr @NameListToString(ptr noundef %106)
  %108 = call ptr @GetDatabaseEncodingName()
  %109 = call i32 (ptr, ...) @errmsg(ptr noundef @.str.27, ptr noundef %107, ptr noundef %108)
  call void @errfinish(ptr noundef @.str.1, i32 noundef 4017, ptr noundef @__func__.get_collation_oid)
  br label %110

110:                                              ; preds = %104, %102, %100
  unreachable

111:                                              ; No predecessors!
  br label %112

112:                                              ; preds = %111
  br label %113

113:                                              ; preds = %112, %95
  store i32 0, ptr %3, align 4
  store i32 1, ptr %12, align 4
  br label %114

114:                                              ; preds = %113, %92, %37, %29
  call void @llvm.lifetime.end.p0(i64 8, ptr %11) #14
  call void @llvm.lifetime.end.p0(i64 4, ptr %10) #14
  call void @llvm.lifetime.end.p0(i64 4, ptr %9) #14
  call void @llvm.lifetime.end.p0(i64 4, ptr %8) #14
  call void @llvm.lifetime.end.p0(i64 8, ptr %7) #14
  call void @llvm.lifetime.end.p0(i64 8, ptr %6) #14
  %115 = load i32, ptr %3, align 4
  ret i32 %115
}