; Function Attrs: nounwind uwtable
define dso_local i32 @get_collation_oid(ptr noundef captures(address_is_null) %0, i1 noundef zeroext %1) local_unnamed_addr #0 {
  %3 = alloca ptr, align 8
  %4 = alloca ptr, align 8
  call void @llvm.lifetime.start.p0(i64 8, ptr nonnull %3) #19
  call void @llvm.lifetime.start.p0(i64 8, ptr nonnull %4) #19
  %5 = tail call i32 @GetDatabaseEncoding() #19
  call void @DeconstructQualifiedName(ptr noundef %0, ptr noundef nonnull %3, ptr noundef nonnull %4)
  %6 = load ptr, ptr %3, align 8
  %.not29 = icmp eq ptr %6, null
  br i1 %.not29, label %31, label %7

7:                                                ; preds = %2
  %8 = tail call i32 @LookupExplicitNamespace(ptr noundef nonnull %6, i1 noundef zeroext %1)
  %9 = icmp eq i32 %8, 0
  %or.cond.not = select i1 %1, i1 %9, i1 false
  br i1 %or.cond.not, label %lookup_collation.exit.thread, label %10

10:                                               ; preds = %7
  %11 = load ptr, ptr %4, align 8
  %12 = ptrtoint ptr %11 to i64
  %13 = sext i32 %5 to i64
  %14 = zext i32 %8 to i64
  %15 = tail call i32 @GetSysCacheOid(i32 noundef 15, i16 noundef signext 1, i64 noundef %12, i64 noundef %13, i64 noundef %14, i64 noundef 0) #19
  %.not.i = icmp eq i32 %15, 0
  br i1 %.not.i, label %16, label %lookup_collation.exit.thread

16:                                               ; preds = %10
  %17 = tail call ptr @SearchSysCache3(i32 noundef 15, i64 noundef %12, i64 noundef -1, i64 noundef %14) #19
  %.not18.i = icmp eq ptr %17, null
  br i1 %.not18.i, label %lookup_collation.exit, label %18

18:                                               ; preds = %16
  %19 = getelementptr i8, ptr %17, i64 16
  %.val.i = load ptr, ptr %19, align 8
  %20 = getelementptr inbounds nuw i8, ptr %.val.i, i64 22
  %21 = load i8, ptr %20, align 2
  %22 = zext i8 %21 to i64
  %23 = getelementptr inbounds nuw i8, ptr %.val.i, i64 %22
  %24 = getelementptr inbounds nuw i8, ptr %23, i64 76
  %25 = load i8, ptr %24, align 4
  %26 = icmp eq i8 %25, 105
  br i1 %26, label %27, label %.sink.split.i

27:                                               ; preds = %18
  %28 = tail call zeroext i1 @is_encoding_supported_by_icu(i32 noundef %5) #19
  br i1 %28, label %.sink.split.i, label %30

.sink.split.i:                                    ; preds = %27, %18
  %29 = load i32, ptr %23, align 4
  br label %30

30:                                               ; preds = %.sink.split.i, %27
  %.015.i = phi i32 [ 0, %27 ], [ %29, %.sink.split.i ]
  tail call void @ReleaseSysCache(ptr noundef nonnull %17) #19
  br label %lookup_collation.exit

lookup_collation.exit:                            ; preds = %16, %30
  %.0.i = phi i32 [ %.015.i, %30 ], [ 0, %16 ]
  %.not = icmp ne i32 %.0.i, 0
  %brmerge34 = or i1 %1, %.not
  br i1 %brmerge34, label %lookup_collation.exit.thread, label %65

31:                                               ; preds = %2
  tail call fastcc void @recomputeNamespacePath()
  %32 = load ptr, ptr @activeSearchPath, align 8
  %.not30 = icmp eq ptr %32, null
  br i1 %.not30, label %._crit_edge, label %.lr.ph

.lr.ph:                                           ; preds = %31
  %33 = getelementptr inbounds nuw i8, ptr %32, i64 4
  %34 = getelementptr inbounds nuw i8, ptr %32, i64 16
  %35 = load ptr, ptr %4, align 8
  %36 = ptrtoint ptr %35 to i64
  %37 = sext i32 %5 to i64
  %38 = load i32, ptr %33, align 4
  %39 = icmp sgt i32 %38, 0
  br i1 %39, label %.lr.ph68, label %._crit_edge

.lr.ph68:                                         ; preds = %.lr.ph, %lookup_collation.exit41.thread
  %indvars.iv = phi i64 [ %indvars.iv.next, %lookup_collation.exit41.thread ], [ 0, %.lr.ph ]
  %40 = load ptr, ptr %34, align 8
  %41 = getelementptr inbounds nuw %union.ListCell, ptr %40, i64 %indvars.iv
  %42 = load i32, ptr %41, align 8
  %43 = load i32, ptr @myTempNamespace, align 4
  %44 = icmp eq i32 %42, %43
  br i1 %44, label %lookup_collation.exit41.thread, label %45

45:                                               ; preds = %.lr.ph68
  %46 = zext i32 %42 to i64
  %47 = tail call i32 @GetSysCacheOid(i32 noundef 15, i16 noundef signext 1, i64 noundef %36, i64 noundef %37, i64 noundef %46, i64 noundef 0) #19
  %.not.i35 = icmp eq i32 %47, 0
  br i1 %.not.i35, label %48, label %lookup_collation.exit.thread

48:                                               ; preds = %45
  %49 = tail call ptr @SearchSysCache3(i32 noundef 15, i64 noundef %36, i64 noundef -1, i64 noundef %46) #19
  %.not18.i37 = icmp eq ptr %49, null
  br i1 %.not18.i37, label %lookup_collation.exit41.thread, label %50

50:                                               ; preds = %48
  %51 = getelementptr i8, ptr %49, i64 16
  %.val.i38 = load ptr, ptr %51, align 8
  %52 = getelementptr inbounds nuw i8, ptr %.val.i38, i64 22
  %53 = load i8, ptr %52, align 2
  %54 = zext i8 %53 to i64
  %55 = getelementptr inbounds nuw i8, ptr %.val.i38, i64 %54
  %56 = getelementptr inbounds nuw i8, ptr %55, i64 76
  %57 = load i8, ptr %56, align 4
  %58 = icmp eq i8 %57, 105
  br i1 %58, label %59, label %lookup_collation.exit41

59:                                               ; preds = %50
  %60 = tail call zeroext i1 @is_encoding_supported_by_icu(i32 noundef %5) #19
  br i1 %60, label %lookup_collation.exit41, label %lookup_collation.exit41.thread55

lookup_collation.exit41.thread55:                 ; preds = %59
  tail call void @ReleaseSysCache(ptr noundef nonnull %49) #19
  br label %lookup_collation.exit41.thread

lookup_collation.exit41:                          ; preds = %50, %59
  %61 = load i32, ptr %55, align 4
  tail call void @ReleaseSysCache(ptr noundef nonnull %49) #19
  %.not32 = icmp eq i32 %61, 0
  br i1 %.not32, label %lookup_collation.exit41.thread, label %lookup_collation.exit.thread

lookup_collation.exit41.thread:                   ; preds = %48, %lookup_collation.exit41.thread55, %lookup_collation.exit41, %.lr.ph68
  %indvars.iv.next = add nuw nsw i64 %indvars.iv, 1
  %62 = load i32, ptr %33, align 4
  %63 = sext i32 %62 to i64
  %64 = icmp slt i64 %indvars.iv.next, %63
  br i1 %64, label %.lr.ph68, label %._crit_edge

._crit_edge:                                      ; preds = %lookup_collation.exit41.thread, %.lr.ph, %31
  br i1 %1, label %lookup_collation.exit.thread, label %65

65:                                               ; preds = %lookup_collation.exit, %._crit_edge
  %66 = tail call zeroext i1 @errstart_cold(i32 noundef 21, ptr noundef null) #21
  tail call void @llvm.assume(i1 %66)
  %67 = tail call i32 @errcode(i32 noundef 67137668) #19
  %68 = tail call ptr @NameListToString(ptr noundef %0)
  %69 = tail call ptr @GetDatabaseEncodingName() #19
  %70 = tail call i32 (ptr, ...) @errmsg(ptr noundef nonnull @.str.27, ptr noundef %68, ptr noundef %69) #19
  tail call void @errfinish(ptr noundef nonnull @.str.1, i32 noundef 4017, ptr noundef nonnull @__func__.get_collation_oid) #19
  unreachable

lookup_collation.exit.thread:                     ; preds = %lookup_collation.exit41, %45, %10, %lookup_collation.exit, %._crit_edge, %7
  %.0 = phi i32 [ 0, %._crit_edge ], [ 0, %7 ], [ %.0.i, %lookup_collation.exit ], [ %15, %10 ], [ %47, %45 ], [ %61, %lookup_collation.exit41 ]
  call void @llvm.lifetime.end.p0(i64 8, ptr nonnull %4) #19
  call void @llvm.lifetime.end.p0(i64 8, ptr nonnull %3) #19
  ret i32 %.0
}